target datalayout = "e-m:e-p270:32:32-p271:32:32-p272:64:64-i64:64-i128:128-f80:128-n8:16:32:64-S128"
target triple = "x86_64-pc-linux-gnu"

%"struct.std::__1::hash" = type { i8 }
%struct.timespec = type { i64, i64 }
%"struct.std::__1::__libcpp_contention_table_entry" = type { %"struct.std::__1::__cxx_atomic_impl", %"struct.std::__1::__cxx_atomic_impl", [56 x i8] }
%"struct.std::__1::__cxx_atomic_impl" = type { %"struct.std::__1::__cxx_atomic_base_impl" }
%"struct.std::__1::__cxx_atomic_base_impl" = type { i32 }
%union.anon = type { ptr }

@_ZNSt3__1L26__libcpp_contention_hasherE = internal global %"struct.std::__1::hash" zeroinitializer, align 1
@_ZZNSt3__1L33__libcpp_platform_wait_on_addressEPVKNS_17__cxx_atomic_implIiNS_22__cxx_atomic_base_implIiEEEEiE9__timeout = internal constant %struct.timespec { i64 2, i64 0 }, align 8

; Function Attrs: mustprogress nounwind uwtable
define linkonce_odr hidden noundef i32 @_ZNSt3__122__cxx_atomic_fetch_subB8ne210000IiEET_PVNS_22__cxx_atomic_base_implIS1_EES1_NS_12memory_orderE(ptr noundef %0, i32 noundef %1, i32 noundef %2) #0 comdat {
  %4 = alloca ptr, align 8
  %5 = alloca i32, align 4
  %6 = alloca i32, align 4
  %7 = alloca i32, align 4
  %8 = alloca i32, align 4
  store ptr %0, ptr %4, align 8, !tbaa !18
  store i32 %1, ptr %5, align 4, !tbaa !12
  store i32 %2, ptr %6, align 4, !tbaa !20
  %9 = load ptr, ptr %4, align 8, !tbaa !18
  %10 = getelementptr inbounds nuw %"struct.std::__1::__cxx_atomic_base_impl", ptr %9, i32 0, i32 0
  %11 = load i32, ptr %6, align 4, !tbaa !20
  %12 = load i32, ptr %5, align 4, !tbaa !12
  store i32 %12, ptr %7, align 4, !tbaa !12
  switch i32 %11, label %13 [
    i32 1, label %16
    i32 2, label %16
    i32 3, label %19
    i32 4, label %22
    i32 5, label %25
  ]

13:                                               ; preds = %3
  %14 = load i32, ptr %7, align 4
  %15 = atomicrmw volatile sub ptr %10, i32 %14 monotonic, align 4
  store i32 %15, ptr %8, align 4
  br label %28

16:                                               ; preds = %3, %3
  %17 = load i32, ptr %7, align 4
  %18 = atomicrmw volatile sub ptr %10, i32 %17 acquire, align 4
  store i32 %18, ptr %8, align 4
  br label %28

19:                                               ; preds = %3
  %20 = load i32, ptr %7, align 4
  %21 = atomicrmw volatile sub ptr %10, i32 %20 release, align 4
  store i32 %21, ptr %8, align 4
  br label %28

22:                                               ; preds = %3
  %23 = load i32, ptr %7, align 4
  %24 = atomicrmw volatile sub ptr %10, i32 %23 acq_rel, align 4
  store i32 %24, ptr %8, align 4
  br label %28

25:                                               ; preds = %3
  %26 = load i32, ptr %7, align 4
  %27 = atomicrmw volatile sub ptr %10, i32 %26 seq_cst, align 4
  store i32 %27, ptr %8, align 4
  br label %28

28:                                               ; preds = %25, %22, %19, %16, %13
  %29 = load i32, ptr %8, align 4, !tbaa !12
  ret i32 %29
}

; Function Attrs: mustprogress nounwind uwtable
define internal void @_ZNSt3__1L33__libcpp_platform_wait_on_addressEPVKNS_17__cxx_atomic_implIiNS_22__cxx_atomic_base_implIiEEEEi(ptr noundef %0, i32 noundef %1) #0 {
  %3 = alloca ptr, align 8
  %4 = alloca i32, align 4
  store ptr %0, ptr %3, align 8, !tbaa !10
  store i32 %1, ptr %4, align 4, !tbaa !12
  %5 = load ptr, ptr %3, align 8, !tbaa !10
  %6 = load i32, ptr %4, align 4, !tbaa !12
  %7 = call i64 (i64, ...) @syscall(i64 noundef 202, ptr noundef %5, i32 noundef 128, i32 noundef %6, ptr noundef @_ZZNSt3__1L33__libcpp_platform_wait_on_addressEPVKNS_17__cxx_atomic_implIiNS_22__cxx_atomic_base_implIiEEEEiE9__timeout, i32 noundef 0, i32 noundef 0) #7
  ret void
}

; Function Attrs: mustprogress nounwind uwtable
define linkonce_odr hidden noundef i32 @_ZNSt3__122__cxx_atomic_fetch_addB8ne210000IiEET_PVNS_22__cxx_atomic_base_implIS1_EES1_NS_12memory_orderE(ptr noundef %0, i32 noundef %1, i32 noundef %2) #0 comdat {
  %4 = alloca ptr, align 8
  %5 = alloca i32, align 4
  %6 = alloca i32, align 4
  %7 = alloca i32, align 4
  %8 = alloca i32, align 4
  store ptr %0, ptr %4, align 8, !tbaa !18
  store i32 %1, ptr %5, align 4, !tbaa !12
  store i32 %2, ptr %6, align 4, !tbaa !20
  %9 = load ptr, ptr %4, align 8, !tbaa !18
  %10 = getelementptr inbounds nuw %"struct.std::__1::__cxx_atomic_base_impl", ptr %9, i32 0, i32 0
  %11 = load i32, ptr %6, align 4, !tbaa !20
  %12 = load i32, ptr %5, align 4, !tbaa !12
  store i32 %12, ptr %7, align 4, !tbaa !12
  switch i32 %11, label %13 [
    i32 1, label %16
    i32 2, label %16
    i32 3, label %19
    i32 4, label %22
    i32 5, label %25
  ]

13:                                               ; preds = %3
  %14 = load i32, ptr %7, align 4
  %15 = atomicrmw volatile add ptr %10, i32 %14 monotonic, align 4
  store i32 %15, ptr %8, align 4
  br label %28

16:                                               ; preds = %3, %3
  %17 = load i32, ptr %7, align 4
  %18 = atomicrmw volatile add ptr %10, i32 %17 acquire, align 4
  store i32 %18, ptr %8, align 4
  br label %28

19:                                               ; preds = %3
  %20 = load i32, ptr %7, align 4
  %21 = atomicrmw volatile add ptr %10, i32 %20 release, align 4
  store i32 %21, ptr %8, align 4
  br label %28

22:                                               ; preds = %3
  %23 = load i32, ptr %7, align 4
  %24 = atomicrmw volatile add ptr %10, i32 %23 acq_rel, align 4
  store i32 %24, ptr %8, align 4
  br label %28

25:                                               ; preds = %3
  %26 = load i32, ptr %7, align 4
  %27 = atomicrmw volatile add ptr %10, i32 %26 seq_cst, align 4
  store i32 %27, ptr %8, align 4
  br label %28

28:                                               ; preds = %25, %22, %19, %16, %13
  %29 = load i32, ptr %8, align 4, !tbaa !12
  ret i32 %29
}

; Function Attrs: mustprogress nounwind uwtable
define linkonce_odr hidden noundef i64 @_ZNKSt3__14hashIPVKvEclB8ne210000ES2_(ptr noundef nonnull align 1 dereferenceable(1) %0, ptr noundef %1) #0 comdat align 2 {
  %3 = alloca ptr, align 8
  %4 = alloca ptr, align 8
  %5 = alloca %union.anon, align 8
  store ptr %0, ptr %3, align 8, !tbaa !22
  store ptr %1, ptr %4, align 8, !tbaa !4
  call void @llvm.lifetime.start.p0(i64 8, ptr %5) #7
  %6 = load ptr, ptr %4, align 8, !tbaa !4
  store ptr %6, ptr %5, align 8, !tbaa !24
  %7 = call noundef i64 @_ZNSt3__113__hash_memoryEPKvm(ptr noundef captures(none) %5, i64 noundef 8) #8
  call void @llvm.lifetime.end.p0(i64 8, ptr %5) #7
  ret i64 %7
}

; Function Attrs: noinline noreturn nounwind uwtable
define linkonce_odr hidden void @__clang_call_terminate(ptr noundef %0) #2 comdat {
  %2 = call ptr @__cxa_begin_catch(ptr %0) #7
  call void @_ZSt9terminatev() #6
  unreachable
}

; Function Attrs: mustprogress uwtable
define internal void @_ZNSt3__1L24__libcpp_contention_waitEPVNS_17__cxx_atomic_implIiNS_22__cxx_atomic_base_implIiEEEEPVKS3_i(ptr noundef %0, ptr noundef %1, i32 noundef %2) #1 {
  %4 = alloca ptr, align 8
  %5 = alloca ptr, align 8
  %6 = alloca i32, align 4
  store ptr %0, ptr %4, align 8, !tbaa !10
  store ptr %1, ptr %5, align 8, !tbaa !10
  store i32 %2, ptr %6, align 4, !tbaa !12
  %7 = load ptr, ptr %4, align 8, !tbaa !10
  %8 = call noundef i32 @_ZNSt3__122__cxx_atomic_fetch_addB8ne210000IiEET_PVNS_22__cxx_atomic_base_implIS1_EES1_NS_12memory_orderE(ptr noundef %7, i32 noundef 1, i32 noundef 5) #7
  %9 = load ptr, ptr %5, align 8, !tbaa !10
  %10 = load i32, ptr %6, align 4, !tbaa !12
  call void @_ZNSt3__1L33__libcpp_platform_wait_on_addressEPVKNS_17__cxx_atomic_implIiNS_22__cxx_atomic_base_implIiEEEEi(ptr noundef %9, i32 noundef %10)
  %11 = load ptr, ptr %4, align 8, !tbaa !10
  %12 = call noundef i32 @_ZNSt3__122__cxx_atomic_fetch_subB8ne210000IiEET_PVNS_22__cxx_atomic_base_implIS1_EES1_NS_12memory_orderE(ptr noundef %11, i32 noundef 1, i32 noundef 3) #7
  ret void
}

; Function Attrs: mustprogress nounwind uwtable
define internal noundef ptr @_ZNSt3__1L25__libcpp_contention_stateEPVKv(ptr noundef %0) #0 {
  %2 = alloca ptr, align 8
  store ptr %0, ptr %2, align 8, !tbaa !4
  %3 = load ptr, ptr %2, align 8, !tbaa !4
  %4 = call noundef i64 @_ZNKSt3__14hashIPVKvEclB8ne210000ES2_(ptr noundef nonnull align 1 dereferenceable(1) @_ZNSt3__1L26__libcpp_contention_hasherE, ptr noundef %3) #7
  %5 = and i64 %4, 255
  %6 = getelementptr inbounds nuw [256 x %"struct.std::__1::__libcpp_contention_table_entry"], ptr @_ZNSt3__1L25__libcpp_contention_tableE, i64 0, i64 %5
  ret ptr %6
}

; Function Attrs: mustprogress nounwind uwtable
define dso_local void @_ZNSt3__120__libcpp_atomic_waitEPVKvi(ptr noundef %0, i32 noundef %1) #0 personality ptr @__gxx_personality_v0 {
  %3 = alloca ptr, align 8
  %4 = alloca i32, align 4
  %5 = alloca ptr, align 8
  store ptr %0, ptr %3, align 8, !tbaa !4
  store i32 %1, ptr %4, align 4, !tbaa !12
  call void @llvm.lifetime.start.p0(i64 8, ptr %5) #7
  %6 = load ptr, ptr %3, align 8, !tbaa !4
  %7 = invoke noundef ptr @_ZNSt3__1L25__libcpp_contention_stateEPVKv(ptr noundef %6)
          to label %8 unwind label %15

8:                                                ; preds = %2
  store ptr %7, ptr %5, align 8, !tbaa !8
  %9 = load ptr, ptr %5, align 8, !tbaa !8
  %10 = getelementptr inbounds nuw %"struct.std::__1::__libcpp_contention_table_entry", ptr %9, i32 0, i32 0
  %11 = load ptr, ptr %5, align 8, !tbaa !8
  %12 = getelementptr inbounds nuw %"struct.std::__1::__libcpp_contention_table_entry", ptr %11, i32 0, i32 1
  %13 = load i32, ptr %4, align 4, !tbaa !12
  invoke void @_ZNSt3__1L24__libcpp_contention_waitEPVNS_17__cxx_atomic_implIiNS_22__cxx_atomic_base_implIiEEEEPVKS3_i(ptr noundef %10, ptr noundef %12, i32 noundef %13)
          to label %14 unwind label %15

14:                                               ; preds = %8
  call void @llvm.lifetime.end.p0(i64 8, ptr %5) #7
  ret void

15:                                               ; preds = %8, %2
  %16 = landingpad { ptr, i32 }
          catch ptr null
  %17 = extractvalue { ptr, i32 } %16, 0
  call void @__clang_call_terminate(ptr %17) #6
  unreachable
}